target datalayout = "e-m:e-p270:32:32-p271:32:32-p272:64:64-i64:64-i128:128-f80:128-n8:16:32:64-S128"
target triple = "x86_64-pc-linux-gnu"

%struct.AVComplexFloat = type { float, float }
%struct.AVTXContext = type { i32, i32, ptr, ptr, ptr, ptr, [4 x ptr], i32, [4 x ptr], ptr, i32, i64, i32, float, double, ptr }

; Function Attrs: nounwind uwtable
define internal void @ff_tx_fft_float_c(ptr noundef %0, ptr noundef %1, ptr noundef %2, i64 noundef %3) #4 {
  %5 = alloca ptr, align 8
  %6 = alloca ptr, align 8
  %7 = alloca ptr, align 8
  %8 = alloca i64, align 8
  %9 = alloca ptr, align 8
  %10 = alloca ptr, align 8
  %11 = alloca ptr, align 8
  %12 = alloca ptr, align 8
  %13 = alloca i32, align 4
  %14 = alloca i32, align 4
  store ptr %0, ptr %5, align 8, !tbaa !17
  store ptr %1, ptr %6, align 8, !tbaa !8
  store ptr %2, ptr %7, align 8, !tbaa !8
  store i64 %3, ptr %8, align 8, !tbaa !30
  call void @llvm.lifetime.start.p0(i64 8, ptr %9) #10
  %15 = load ptr, ptr %7, align 8, !tbaa !8
  store ptr %15, ptr %9, align 8, !tbaa !60
  call void @llvm.lifetime.start.p0(i64 8, ptr %10) #10
  %16 = load ptr, ptr %5, align 8, !tbaa !17
  %17 = getelementptr inbounds nuw %struct.AVTXContext, ptr %16, i32 0, i32 11
  %18 = load i64, ptr %17, align 8, !tbaa !66
  %19 = and i64 %18, 1
  %20 = icmp ne i64 %19, 0
  br i1 %20, label %21, label %25

21:                                               ; preds = %4
  %22 = load ptr, ptr %5, align 8, !tbaa !17
  %23 = getelementptr inbounds nuw %struct.AVTXContext, ptr %22, i32 0, i32 4
  %24 = load ptr, ptr %23, align 8, !tbaa !67
  br label %27

25:                                               ; preds = %4
  %26 = load ptr, ptr %6, align 8, !tbaa !8
  br label %27

27:                                               ; preds = %25, %21
  %28 = phi ptr [ %24, %21 ], [ %26, %25 ]
  store ptr %28, ptr %10, align 8, !tbaa !60
  call void @llvm.lifetime.start.p0(i64 8, ptr %11) #10
  %29 = load ptr, ptr %6, align 8, !tbaa !8
  store ptr %29, ptr %11, align 8, !tbaa !60
  call void @llvm.lifetime.start.p0(i64 8, ptr %12) #10
  %30 = load ptr, ptr %5, align 8, !tbaa !17
  %31 = getelementptr inbounds nuw %struct.AVTXContext, ptr %30, i32 0, i32 5
  %32 = load ptr, ptr %31, align 8, !tbaa !68
  %33 = getelementptr inbounds %struct.AVTXContext, ptr %32, i64 0
  %34 = getelementptr inbounds nuw %struct.AVTXContext, ptr %33, i32 0, i32 2
  %35 = load ptr, ptr %34, align 8, !tbaa !69
  store ptr %35, ptr %12, align 8, !tbaa !19
  call void @llvm.lifetime.start.p0(i64 4, ptr %13) #10
  %36 = load ptr, ptr %5, align 8, !tbaa !17
  %37 = getelementptr inbounds nuw %struct.AVTXContext, ptr %36, i32 0, i32 0
  %38 = load i32, ptr %37, align 8, !tbaa !21
  store i32 %38, ptr %13, align 4, !tbaa !4
  call void @llvm.lifetime.start.p0(i64 4, ptr %14) #10
  store i32 0, ptr %14, align 4, !tbaa !4
  br label %39

39:                                               ; preds = %57, %27
  %40 = load i32, ptr %14, align 4, !tbaa !4
  %41 = load i32, ptr %13, align 4, !tbaa !4
  %42 = icmp slt i32 %40, %41
  br i1 %42, label %44, label %43

43:                                               ; preds = %39
  call void @llvm.lifetime.end.p0(i64 4, ptr %14) #10
  br label %60

44:                                               ; preds = %39
  %45 = load ptr, ptr %10, align 8, !tbaa !60
  %46 = load i32, ptr %14, align 4, !tbaa !4
  %47 = sext i32 %46 to i64
  %48 = getelementptr inbounds %struct.AVComplexFloat, ptr %45, i64 %47
  %49 = load ptr, ptr %9, align 8, !tbaa !60
  %50 = load ptr, ptr %12, align 8, !tbaa !19
  %51 = load i32, ptr %14, align 4, !tbaa !4
  %52 = sext i32 %51 to i64
  %53 = getelementptr inbounds i32, ptr %50, i64 %52
  %54 = load i32, ptr %53, align 4, !tbaa !4
  %55 = sext i32 %54 to i64
  %56 = getelementptr inbounds %struct.AVComplexFloat, ptr %49, i64 %55
  call void @llvm.memcpy.p0.p0.i64(ptr align 4 %48, ptr align 4 %56, i64 8, i1 false), !tbaa.struct !35
  br label %57

57:                                               ; preds = %44
  %58 = load i32, ptr %14, align 4, !tbaa !4
  %59 = add nsw i32 %58, 1
  store i32 %59, ptr %14, align 4, !tbaa !4
  br label %39, !llvm.loop !70

60:                                               ; preds = %43
  %61 = load ptr, ptr %5, align 8, !tbaa !17
  %62 = getelementptr inbounds nuw %struct.AVTXContext, ptr %61, i32 0, i32 6
  %63 = getelementptr inbounds [4 x ptr], ptr %62, i64 0, i64 0
  %64 = load ptr, ptr %63, align 8, !tbaa !8
  %65 = load ptr, ptr %5, align 8, !tbaa !17
  %66 = getelementptr inbounds nuw %struct.AVTXContext, ptr %65, i32 0, i32 5
  %67 = load ptr, ptr %66, align 8, !tbaa !68
  %68 = getelementptr inbounds %struct.AVTXContext, ptr %67, i64 0
  %69 = load ptr, ptr %11, align 8, !tbaa !60
  %70 = load ptr, ptr %10, align 8, !tbaa !60
  %71 = load i64, ptr %8, align 8, !tbaa !30
  call void %64(ptr noundef %68, ptr noundef %69, ptr noundef %70, i64 noundef %71)
  call void @llvm.lifetime.end.p0(i64 4, ptr %13) #10
  call void @llvm.lifetime.end.p0(i64 8, ptr %12) #10
  call void @llvm.lifetime.end.p0(i64 8, ptr %11) #10
  call void @llvm.lifetime.end.p0(i64 8, ptr %10) #10
  call void @llvm.lifetime.end.p0(i64 8, ptr %9) #10
  ret void
}